target datalayout = "e-m:e-p270:32:32-p271:32:32-p272:64:64-i64:64-i128:128-f80:128-n8:16:32:64-S128"
target triple = "x86_64-pc-linux-gnu"

; Function Attrs: nounwind uwtable
define internal i32 @luaB_pcall(ptr noundef %0) #0 {
  %2 = alloca ptr, align 8
  %3 = alloca i32, align 4
  store ptr %0, ptr %2, align 8, !tbaa !4
  call void @llvm.lifetime.start.p0(i64 4, ptr %3) #5
  %4 = load ptr, ptr %2, align 8, !tbaa !4
  call void @luaL_checkany(ptr noundef %4, i32 noundef 1)
  %5 = load ptr, ptr %2, align 8, !tbaa !4
  %6 = load ptr, ptr %2, align 8, !tbaa !4
  %7 = call i32 @lua_gettop(ptr noundef %6)
  %8 = sub nsw i32 %7, 1
  %9 = call i32 @lua_pcall(ptr noundef %5, i32 noundef %8, i32 noundef -1, i32 noundef 0)
  store i32 %9, ptr %3, align 4, !tbaa !12
  %10 = load ptr, ptr %2, align 8, !tbaa !4
  %11 = load i32, ptr %3, align 4, !tbaa !12
  %12 = icmp eq i32 %11, 0
  %13 = zext i1 %12 to i32
  call void @lua_pushboolean(ptr noundef %10, i32 noundef %13)
  %14 = load ptr, ptr %2, align 8, !tbaa !4
  call void @lua_insert(ptr noundef %14, i32 noundef 1)
  %15 = load ptr, ptr %2, align 8, !tbaa !4
  %16 = call i32 @lua_gettop(ptr noundef %15)
  call void @llvm.lifetime.end.p0(i64 4, ptr %3) #5
  ret i32 %16
}