; Function Attrs: nounwind uwtable
define internal i32 @luaB_pcall(ptr noundef %0) #0 {
  tail call void @luaL_checkany(ptr noundef %0, i32 noundef 1) #8
  %2 = tail call i32 @lua_gettop(ptr noundef %0) #8
  %3 = add nsw i32 %2, -1
  %4 = tail call i32 @lua_pcall(ptr noundef %0, i32 noundef %3, i32 noundef -1, i32 noundef 0) #8
  %5 = icmp eq i32 %4, 0
  %6 = zext i1 %5 to i32
  tail call void @lua_pushboolean(ptr noundef %0, i32 noundef %6) #8
  tail call void @lua_insert(ptr noundef %0, i32 noundef 1) #8
  %7 = tail call i32 @lua_gettop(ptr noundef %0) #8
  ret i32 %7
}